; Function Attrs: mustprogress nofree norecurse nosync nounwind willreturn memory(read, inaccessiblemem: none) uwtable
define internal range(i32 16, 51) i32 @HIDAPI_DriverXboxOne_GetJoystickCapabilities(ptr noundef readonly captures(none) %0, ptr readnone captures(none) %1) #2 {
  %3 = getelementptr inbounds nuw i8, ptr %0, i64 112
  %4 = load ptr, ptr %3, align 8
  %5 = getelementptr inbounds nuw i8, ptr %4, i64 44
  %6 = load i8, ptr %5, align 4, !range !3, !noundef !4
  %7 = trunc nuw i8 %6 to i1
  %spec.select = select i1 %7, i32 48, i32 16
  %8 = getelementptr inbounds nuw i8, ptr %4, i64 41
  %9 = load i8, ptr %8, align 1, !range !3, !noundef !4
  %10 = shl nuw nsw i8 %9, 1
  %11 = zext nneg i8 %10 to i32
  %.1 = or disjoint i32 %spec.select, %11
  ret i32 %.1
}